Certificate:
    Data:
        Version: 3 (0x2)
        Serial Number: 1 (0x1)
    Signature Algorithm: sha256WithRSAEncryption
        Issuer: C=CA, ST=Ontario, L=Toronto, O=Googlw, OU=Google Cloud Platform, CN=example.com/emailAddress=srinandans@google.com
        Validity
            Not Before: Jun 20 16:02:48 2021 GMT
            Not After : Jul 10 16:02:48 2023 GMT
        Subject: C=CA, ST=Ontario, O=Google Canada, OU=Google Cloud Platform, CN=example.org
        Subject Public Key Info:
            Public Key Algorithm: rsaEncryption
                Public-Key: (2048 bit)
                Modulus:
                    00:e7:11:2b:33:1f:ef:76:cc:0e:46:63:8d:53:47:
                    5d:0d:2c:b1:4f:60:98:04:11:ee:b9:fb:d0:f6:80:
                    58:b5:70:f7:3b:d6:77:3e:0e:fd:48:15:6b:dc:ea:
                    f4:05:55:77:ae:bd:66:d9:32:4a:79:47:6b:f7:e0:
                    73:22:65:de:60:fd:7e:0f:6e:e4:a1:c5:d3:bc:9a:
                    71:aa:58:5a:b9:1f:ea:a7:5e:db:94:fe:46:02:b6:
                    44:c2:7e:c4:eb:70:a4:48:bb:7c:de:9a:64:1a:d9:
                    e7:a7:b8:ba:57:dd:0d:61:f9:ef:01:73:3c:64:c0:
                    9b:15:b4:41:67:2c:4f:d4:d9:59:db:96:4a:23:26:
                    39:2c:89:a1:2d:dd:ec:1b:ee:f8:d0:c4:a7:19:81:
                    9e:5a:a9:26:92:f1:bc:d5:30:a4:e3:94:18:65:85:
                    a1:84:48:69:de:03:88:6a:97:0a:ed:39:90:2a:a6:
                    44:0c:13:81:99:59:e4:01:09:5d:46:d6:e5:5c:b8:
                    ff:de:f5:4d:66:83:e2:01:f9:e3:29:7e:9f:a8:04:
                    6f:f0:95:0e:6c:23:e3:16:eb:e0:82:5c:94:e5:47:
                    3a:bc:c1:b5:52:6f:84:3d:7b:43:d7:b2:01:d9:f2:
                    24:f3:98:20:f6:cb:a9:4b:c6:b3:1c:c6:eb:d9:1f:
                    75:dd
                Exponent: 65537 (0x10001)
        X509v3 extensions:
            X509v3 Basic Constraints: 
                CA:FALSE
            X509v3 Subject Alternative Name: 
                DNS:example.org, DNS:localhost
            X509v3 Subject Key Identifier: 
                D3:AB:C1:D9:7B:37:E3:A4:95:98:75:2E:34:D8:C5:D6:26:9C:33:27
    Signature Algorithm: sha256WithRSAEncryption
         b3:36:8c:2f:06:8e:f7:b7:80:d8:ca:05:0a:4c:d1:e6:a9:d9:
         ca:1d:2a:84:35:e8:c7:bb:1d:76:2a:8d:52:3d:66:a9:c5:2f:
         f1:05:5c:60:e1:e0:27:85:7b:fd:5a:8d:c3:48:c8:95:24:42:
         3a:ce:11:51:bd:9a:e5:7a:0c:47:fe:27:7d:56:5f:82:4a:18:
         63:93:a2:d7:f8:62:bd:24:05:7f:25:d9:7e:8b:86:b0:45:10:
         29:c8:51:d5:21:59:71:7f:22:2c:ba:bb:be:80:ee:ed:64:31:
         fd:56:e9:ef:da:aa:9d:c4:49:ab:74:41:2e:b3:c7:85:3b:f3:
         b0:b4:03:6e:97:1f:56:eb:9e:ed:d1:43:cc:a0:9e:c2:e7:0b:
         2e:19:40:a6:1e:02:0f:6e:b3:c3:c9:42:b2:7e:3a:c1:e8:e4:
         ab:30:eb:7d:48:94:c7:99:bd:c5:e8:e1:58:a9:27:7d:b8:60:
         ec:fc:3a:17:ae:9c:b9:c4:2e:73:68:0e:75:55:fb:f9:17:2a:
         b8:c5:cc:3d:67:ec:34:8b:ef:14:40:81:7d:cf:62:0f:82:76:
         f7:d1:0f:4e:d3:1a:19:a0:b2:f9:5b:05:2c:62:90:5a:b7:f4:
         92:9b:ce:45:19:c9:a1:75:d9:ad:dc:30:d7:5a:78:ba:d2:84:
         81:c2:7d:22
-----BEGIN CERTIFICATE-----
MIID1jCCAr6gAwIBAgIBATANBgkqhkiG9w0BAQsFADCBnjELMAkGA1UEBhMCQ0Ex
EDAOBgNVBAgMB09udGFyaW8xEDAOBgNVBAcMB1Rvcm9udG8xDzANBgNVBAoMBkdv
b2dsdzEeMBwGA1UECwwVR29vZ2xlIENsb3VkIFBsYXRmb3JtMRQwEgYDVQQDDAtl
eGFtcGxlLmNvbTEkMCIGCSqGSIb3DQEJARYVc3JpbmFuZGFuc0Bnb29nbGUuY29t
MB4XDTIxMDYyMDE2MDI0OFoXDTIzMDcxMDE2MDI0OFowbTELMAkGA1UEBhMCQ0Ex
EDAOBgNVBAgMB09udGFyaW8xFjAUBgNVBAoMDUdvb2dsZSBDYW5hZGExHjAcBgNV
BAsMFUdvb2dsZSBDbG91ZCBQbGF0Zm9ybTEUMBIGA1UEAwwLZXhhbXBsZS5vcmcw
ggEiMA0GCSqGSIb3DQEBAQUAA4IBDwAwggEKAoIBAQDnESszH+92zA5GY41TR10N
LLFPYJgEEe65+9D2gFi1cPc71nc+Dv1IFWvc6vQFVXeuvWbZMkp5R2v34HMiZd5g
/X4PbuShxdO8mnGqWFq5H+qnXtuU/kYCtkTCfsTrcKRIu3zemmQa2eenuLpX3Q1h
+e8BczxkwJsVtEFnLE/U2VnblkojJjksiaEt3ewb7vjQxKcZgZ5aqSaS8bzVMKTj
lBhlhaGESGneA4hqlwrtOZAqpkQME4GZWeQBCV1G1uVcuP/e9U1mg+IB+eMpfp+o
BG/wlQ5sI+MW6+CCXJTlRzq8wbVSb4Q9e0PXsgHZ8iTzmCD2y6lLxrMcxuvZH3Xd
AgMBAAGjTzBNMAkGA1UdEwQCMAAwIQYDVR0RBBowGIILZXhhbXBsZS5vcmeCCWxv
Y2FsaG9zdDAdBgNVHQ4EFgQU06vB2Xs346SVmHUuNNjF1iacMycwDQYJKoZIhvcN
AQELBQADggEBALM2jC8Gjve3gNjKBQpM0eap2codKoQ16Me7HXYqjVI9ZqnFL/EF
XGDh4CeFe/1ajcNIyJUkQjrOEVG9muV6DEf+J31WX4JKGGOTotf4Yr0kBX8l2X6L
hrBFECnIUdUhWXF/Iiy6u76A7u1kMf1W6e/aqp3ESat0QS6zx4U787C0A26XH1br
nu3RQ8ygnsLnCy4ZQKYeAg9us8PJQrJ+OsHo5Ksw631IlMeZvcXo4VipJ324YOz8
OheunLnELnNoDnVV+/kXKrjFzD1n7DSL7xRAgX3PYg+CdvfRD07TGhmgsvlbBSxi
kFq39JKbzkUZyaF12a3cMNdaeLrShIHCfSI=
-----END CERTIFICATE-----
